target datalayout = "e-m:e-p270:32:32-p271:32:32-p272:64:64-i64:64-i128:128-f80:128-n8:16:32:64-S128"
target triple = "x86_64-pc-linux-gnu"

%struct.JSSABHeader = type { i32, [0 x i64] }

; Function Attrs: nounwind uwtable
define internal ptr @js_sab_alloc(ptr noundef %0, i64 noundef %1) #0 {
  %3 = alloca ptr, align 8
  %4 = alloca ptr, align 8
  %5 = alloca i64, align 8
  %6 = alloca ptr, align 8
  store ptr %0, ptr %4, align 8
  store i64 %1, ptr %5, align 8
  %7 = load i64, ptr %5, align 8
  %8 = add i64 8, %7
  %9 = call noalias ptr @malloc(i64 noundef %8) #11
  store ptr %9, ptr %6, align 8
  %10 = load ptr, ptr %6, align 8
  %11 = icmp ne ptr %10, null
  br i1 %11, label %13, label %12

12:                                               ; preds = %2
  store ptr null, ptr %3, align 8
  br label %19

13:                                               ; preds = %2
  %14 = load ptr, ptr %6, align 8
  %15 = getelementptr inbounds %struct.JSSABHeader, ptr %14, i32 0, i32 0
  store i32 1, ptr %15, align 8
  %16 = load ptr, ptr %6, align 8
  %17 = getelementptr inbounds %struct.JSSABHeader, ptr %16, i32 0, i32 1
  %18 = getelementptr inbounds [0 x i64], ptr %17, i64 0, i64 0
  store ptr %18, ptr %3, align 8
  br label %19

19:                                               ; preds = %13, %12
  %20 = load ptr, ptr %3, align 8
  ret ptr %20
}