; Function Attrs: mustprogress nofree nounwind willreturn memory(write, argmem: none, inaccessiblemem: readwrite) uwtable
define internal noalias ptr @js_sab_alloc(ptr nocapture readnone %0, i64 noundef %1) #12 {
  %3 = add i64 %1, 8
  %4 = tail call noalias ptr @malloc(i64 noundef %3) #30
  %.not = icmp eq ptr %4, null
  br i1 %.not, label %7, label %5

5:                                                ; preds = %2
  store i32 1, ptr %4, align 8
  %6 = getelementptr inbounds i8, ptr %4, i64 8
  br label %7

7:                                                ; preds = %2, %5
  %.0 = phi ptr [ %6, %5 ], [ null, %2 ]
  ret ptr %.0
}